; Function Attrs: mustprogress nofree norecurse nosync nounwind willreturn memory(argmem: readwrite, inaccessiblemem: readwrite) uwtable
define void @_ZN3gmx19StatePropagatorData21previousPositionsViewEv(ptr dead_on_unwind noalias nocapture writable writeonly sret(%"class.gmx::ArrayRefWithPadding") align 8 %0, ptr nocapture noundef nonnull readonly align 8 dereferenceable(632) %1) local_unnamed_addr #7 align 2 {
  tail call void @llvm.experimental.noalias.scope.decl(metadata !52)
  %3 = getelementptr inbounds i8, ptr %1, i64 56
  %4 = load ptr, ptr %3, align 8, !noalias !52
  %5 = getelementptr inbounds i8, ptr %1, i64 80
  %6 = load ptr, ptr %5, align 8, !noalias !52
  %7 = ptrtoint ptr %6 to i64
  %8 = ptrtoint ptr %4 to i64
  %9 = sub i64 %7, %8
  %10 = getelementptr inbounds i8, ptr %4, i64 %9
  %11 = getelementptr inbounds i8, ptr %1, i64 64
  %12 = load ptr, ptr %11, align 8, !noalias !52
  %13 = ptrtoint ptr %12 to i64
  %14 = sub i64 %13, %8
  %15 = getelementptr inbounds i8, ptr %4, i64 %14
  store ptr %4, ptr %0, align 8, !alias.scope !52
  %16 = getelementptr inbounds i8, ptr %0, i64 8
  store ptr %10, ptr %16, align 8, !alias.scope !52
  %17 = getelementptr inbounds i8, ptr %0, i64 16
  store ptr %15, ptr %17, align 8, !alias.scope !52
  ret void
}